
PS2Controller.elf:     file format elf32-avr

Sections:
Idx Name          Size      VMA       LMA       File off  Algn
  0 .text         00000188  00000000  00000000  00000074  2**1
                  CONTENTS, ALLOC, LOAD, READONLY, CODE
  1 .bss          00000010  00800060  00800060  000001fc  2**0
                  ALLOC
  2 .comment      00000030  00000000  00000000  000001fc  2**0
                  CONTENTS, READONLY
  3 .debug_aranges 00000038  00000000  00000000  0000022c  2**0
                  CONTENTS, READONLY, DEBUGGING
  4 .debug_info   00000258  00000000  00000000  00000264  2**0
                  CONTENTS, READONLY, DEBUGGING
  5 .debug_abbrev 0000015d  00000000  00000000  000004bc  2**0
                  CONTENTS, READONLY, DEBUGGING
  6 .debug_line   00000176  00000000  00000000  00000619  2**0
                  CONTENTS, READONLY, DEBUGGING
  7 .debug_frame  00000070  00000000  00000000  00000790  2**2
                  CONTENTS, READONLY, DEBUGGING
  8 .debug_str    00000269  00000000  00000000  00000800  2**0
                  CONTENTS, READONLY, DEBUGGING
  9 .debug_loc    000001fb  00000000  00000000  00000a69  2**0
                  CONTENTS, READONLY, DEBUGGING
 10 .debug_ranges 00000028  00000000  00000000  00000c64  2**0
                  CONTENTS, READONLY, DEBUGGING

Disassembly of section .text:

00000000 <__vectors>:
   0:	12 c0       	rjmp	.+36     	; 0x26 <__ctors_end>
   2:	3b c0       	rjmp	.+118    	; 0x7a <__vector_1>
   4:	20 c0       	rjmp	.+64     	; 0x46 <__bad_interrupt>
   6:	1f c0       	rjmp	.+62     	; 0x46 <__bad_interrupt>
   8:	1e c0       	rjmp	.+60     	; 0x46 <__bad_interrupt>
   a:	1d c0       	rjmp	.+58     	; 0x46 <__bad_interrupt>
   c:	1c c0       	rjmp	.+56     	; 0x46 <__bad_interrupt>
   e:	1b c0       	rjmp	.+54     	; 0x46 <__bad_interrupt>
  10:	1a c0       	rjmp	.+52     	; 0x46 <__bad_interrupt>
  12:	19 c0       	rjmp	.+50     	; 0x46 <__bad_interrupt>
  14:	18 c0       	rjmp	.+48     	; 0x46 <__bad_interrupt>
  16:	17 c0       	rjmp	.+46     	; 0x46 <__bad_interrupt>
  18:	16 c0       	rjmp	.+44     	; 0x46 <__bad_interrupt>
  1a:	15 c0       	rjmp	.+42     	; 0x46 <__bad_interrupt>
  1c:	14 c0       	rjmp	.+40     	; 0x46 <__bad_interrupt>
  1e:	13 c0       	rjmp	.+38     	; 0x46 <__bad_interrupt>
  20:	12 c0       	rjmp	.+36     	; 0x46 <__bad_interrupt>
  22:	11 c0       	rjmp	.+34     	; 0x46 <__bad_interrupt>
  24:	10 c0       	rjmp	.+32     	; 0x46 <__bad_interrupt>

00000026 <__ctors_end>:
  26:	11 24       	eor	r1, r1
  28:	1f be       	out	0x3f, r1	; 63
  2a:	cf e5       	ldi	r28, 0x5F	; 95
  2c:	d4 e0       	ldi	r29, 0x04	; 4
  2e:	de bf       	out	0x3e, r29	; 62
  30:	cd bf       	out	0x3d, r28	; 61

00000032 <__do_clear_bss>:
  32:	20 e0       	ldi	r18, 0x00	; 0
  34:	a0 e6       	ldi	r26, 0x60	; 96
  36:	b0 e0       	ldi	r27, 0x00	; 0
  38:	01 c0       	rjmp	.+2      	; 0x3c <.do_clear_bss_start>

0000003a <.do_clear_bss_loop>:
  3a:	1d 92       	st	X+, r1

0000003c <.do_clear_bss_start>:
  3c:	a0 37       	cpi	r26, 0x70	; 112
  3e:	b2 07       	cpc	r27, r18
  40:	e1 f7       	brne	.-8      	; 0x3a <.do_clear_bss_loop>
  42:	55 d0       	rcall	.+170    	; 0xee <main>
  44:	9f c0       	rjmp	.+318    	; 0x184 <_exit>

00000046 <__bad_interrupt>:
  46:	dc cf       	rjmp	.-72     	; 0x0 <__vectors>

00000048 <init>:
*/
void init(void)
{
	unsigned char i;
	
	DDRD			= PORTD_OUTPUTS;
  48:	81 e0       	ldi	r24, 0x01	; 1
  4a:	81 bb       	out	0x11, r24	; 17
	PORTD			= PORTD_PULLUPS;
  4c:	80 ef       	ldi	r24, 0xF0	; 240
  4e:	82 bb       	out	0x12, r24	; 18

	DDRC			= PORTC_OUTPUTS;
  50:	14 ba       	out	0x14, r1	; 20
	PORTC			= PORTC_PULLUPS;
  52:	15 ba       	out	0x15, r1	; 21

	DATA_BUS_DDR	= DATA_BUS_OUTPUTS;
  54:	17 ba       	out	0x17, r1	; 23
	DATA_BUS		= DATA_BUS_PULLUPS;
  56:	18 ba       	out	0x18, r1	; 24
  58:	e0 e6       	ldi	r30, 0x60	; 96
  5a:	f0 e0       	ldi	r31, 0x00	; 0
  5c:	80 e7       	ldi	r24, 0x70	; 112
  5e:	90 e0       	ldi	r25, 0x00	; 0
	
	for(i = 0; i < sizeof(g_registers) / sizeof(g_registers[0]); ++i)
		g_registers[i] = 0;
  60:	11 92       	st	Z+, r1
	PORTC			= PORTC_PULLUPS;

	DATA_BUS_DDR	= DATA_BUS_OUTPUTS;
	DATA_BUS		= DATA_BUS_PULLUPS;
	
	for(i = 0; i < sizeof(g_registers) / sizeof(g_registers[0]); ++i)
  62:	e8 17       	cp	r30, r24
  64:	f9 07       	cpc	r31, r25
  66:	e1 f7       	brne	.-8      	; 0x60 <init+0x18>
		g_registers[i] = 0;

	/* Enable INT0 interrupts on falling edge */
	MCUCR = (MCUCR & ~(_BV(ISC01) | _BV(ISC00))) | _BV(ISC01);
  68:	85 b7       	in	r24, 0x35	; 53
  6a:	8c 7f       	andi	r24, 0xFC	; 252
  6c:	82 60       	ori	r24, 0x02	; 2
  6e:	85 bf       	out	0x35, r24	; 53
	GICR |= _BV(INT0);
  70:	8b b7       	in	r24, 0x3b	; 59
  72:	80 64       	ori	r24, 0x40	; 64
  74:	8b bf       	out	0x3b, r24	; 59
	
	sei();
  76:	78 94       	sei
  78:	08 95       	ret

0000007a <__vector_1>:
/*
	ISR for INT0 - handles communication with the host processor.
	This function is called when the host processor asserts nCS.
*/
ISR(INT0_vect)
{
  7a:	1f 92       	push	r1
  7c:	0f 92       	push	r0
  7e:	0f b6       	in	r0, 0x3f	; 63
  80:	0f 92       	push	r0
  82:	11 24       	eor	r1, r1
  84:	8f 93       	push	r24
  86:	ef 93       	push	r30
  88:	ff 93       	push	r31
	if(PORTD & nID)
  8a:	91 9b       	sbis	0x12, 1	; 18
  8c:	0a c0       	rjmp	.+20     	; 0xa2 <__vector_1+0x28>
	{
		/*
			This is an ID cycle.  Place the part identity on the data bus, assert nACK, and
			wait for the cycle to terminate.
		*/
		DO_READ_CYCLE(PERIPHERAL_ID);
  8e:	82 e8       	ldi	r24, 0x82	; 130
  90:	86 bb       	out	0x16, r24	; 22
  92:	8f ef       	ldi	r24, 0xFF	; 255
  94:	87 bb       	out	0x17, r24	; 23
  96:	90 98       	cbi	0x12, 0	; 18
  98:	92 99       	sbic	0x12, 2	; 18
  9a:	fe cf       	rjmp	.-4      	; 0x98 <__vector_1+0x1e>
  9c:	90 9a       	sbi	0x12, 0	; 18
  9e:	17 ba       	out	0x17, r1	; 23
  a0:	1e c0       	rjmp	.+60     	; 0xde <__vector_1+0x64>
	else
	{
		/*
			This is a register read/write cycle.
		*/
		const unsigned char addr = PORTC & 0xF;
  a2:	e5 b3       	in	r30, 0x15	; 21
  a4:	ef 70       	andi	r30, 0x0F	; 15

		if(PORTC & nUR)			/* Read cycle */
  a6:	ac 9b       	sbis	0x15, 4	; 21
  a8:	0d c0       	rjmp	.+26     	; 0xc4 <__vector_1+0x4a>
		{
			DO_READ_CYCLE(g_registers[addr]);
  aa:	f0 e0       	ldi	r31, 0x00	; 0
  ac:	e0 5a       	subi	r30, 0xA0	; 160
  ae:	ff 4f       	sbci	r31, 0xFF	; 255
  b0:	80 81       	ld	r24, Z
  b2:	86 bb       	out	0x16, r24	; 22
  b4:	8f ef       	ldi	r24, 0xFF	; 255
  b6:	87 bb       	out	0x17, r24	; 23
  b8:	90 98       	cbi	0x12, 0	; 18
  ba:	92 99       	sbic	0x12, 2	; 18
  bc:	fe cf       	rjmp	.-4      	; 0xba <__vector_1+0x40>
  be:	90 9a       	sbi	0x12, 0	; 18
  c0:	17 ba       	out	0x17, r1	; 23
  c2:	0d c0       	rjmp	.+26     	; 0xde <__vector_1+0x64>
		}
		else if(PORTC & nUW)	/* Write cycle */
  c4:	ad 9b       	sbis	0x15, 5	; 21
  c6:	0b c0       	rjmp	.+22     	; 0xde <__vector_1+0x64>
		{
			host_reg_write(addr, DATA_BUS_PIN);
  c8:	86 b3       	in	r24, 0x16	; 22
/*
	host_reg_write() - handle a register write by the host.
*/
void host_reg_write(const unsigned char reg, const unsigned char data)
{
	cli();
  ca:	f8 94       	cli
	g_registers[reg] = data;
  cc:	f0 e0       	ldi	r31, 0x00	; 0
  ce:	e0 5a       	subi	r30, 0xA0	; 160
  d0:	ff 4f       	sbci	r31, 0xFF	; 255
  d2:	80 83       	st	Z, r24
	sei();
  d4:	78 94       	sei
			DO_READ_CYCLE(g_registers[addr]);
		}
		else if(PORTC & nUW)	/* Write cycle */
		{
			host_reg_write(addr, DATA_BUS_PIN);
			TERMINATE_BUS_CYCLE();
  d6:	90 98       	cbi	0x12, 0	; 18
  d8:	92 99       	sbic	0x12, 2	; 18
  da:	fe cf       	rjmp	.-4      	; 0xd8 <__vector_1+0x5e>
  dc:	90 9a       	sbi	0x12, 0	; 18
		}
	}
}
  de:	ff 91       	pop	r31
  e0:	ef 91       	pop	r30
  e2:	8f 91       	pop	r24
  e4:	0f 90       	pop	r0
  e6:	0f be       	out	0x3f, r0	; 63
  e8:	0f 90       	pop	r0
  ea:	1f 90       	pop	r1
  ec:	18 95       	reti

000000ee <main>:
		kbstate = state_idle,
		kbdata = 0,
		mousestate = state_idle,
		mousedata = 0;
	
	init();
  ee:	ac df       	rcall	.-168    	; 0x48 <init>
		mouseclk,
		mouseclk_last = 0,
		kbstate = state_idle,
		kbdata = 0,
		mousestate = state_idle,
		mousedata = 0;
  f0:	60 e0       	ldi	r22, 0x00	; 0
		kbclk_last = 0,
		mouseclk,
		mouseclk_last = 0,
		kbstate = state_idle,
		kbdata = 0,
		mousestate = state_idle,
  f2:	40 e0       	ldi	r20, 0x00	; 0
		kbclk,
		kbclk_last = 0,
		mouseclk,
		mouseclk_last = 0,
		kbstate = state_idle,
		kbdata = 0,
  f4:	50 e0       	ldi	r21, 0x00	; 0
	register unsigned char
		kbclk,
		kbclk_last = 0,
		mouseclk,
		mouseclk_last = 0,
		kbstate = state_idle,
  f6:	30 e0       	ldi	r19, 0x00	; 0
{
	register unsigned char
		kbclk,
		kbclk_last = 0,
		mouseclk,
		mouseclk_last = 0,
  f8:	20 e0       	ldi	r18, 0x00	; 0
*/
int main(void)
{
	register unsigned char
		kbclk,
		kbclk_last = 0,
  fa:	90 e0       	ldi	r25, 0x00	; 0
						break;
						
					case state_stop:
						/* TODO: process received character */
						cli();
						g_registers[REG_KB_DATA] = kbdata;
  fc:	a0 e6       	ldi	r26, 0x60	; 96
  fe:	b0 e0       	ldi	r27, 0x00	; 0
						sei();
						kbstate = state_idle;
 100:	70 e0       	ldi	r23, 0x00	; 0
						break;
					
					case state_stop:
						/* TODO: process received character */
						cli();
						g_registers[REG_MOUSE_DATA] = mousedata;
 102:	e1 e6       	ldi	r30, 0x61	; 97
 104:	f0 e0       	ldi	r31, 0x00	; 0
 106:	05 c0       	rjmp	.+10     	; 0x112 <main+0x24>
		}
		
		mouseclk = PORTD & MOUSE_CLK;
		if(mouseclk != mouseclk_last)
		{
			mouseclk_last = mouseclk;
 108:	28 2f       	mov	r18, r24
 10a:	03 c0       	rjmp	.+6      	; 0x112 <main+0x24>
 10c:	28 2f       	mov	r18, r24
 10e:	01 c0       	rjmp	.+2      	; 0x112 <main+0x24>
 110:	28 2f       	mov	r18, r24
	// TODO - ensure that PUD is 0 in SFIOR
	
    while(1)
    {
		/* Read keyboard port */
		kbclk = PORTD & KB_CLK;
 112:	82 b3       	in	r24, 0x12	; 18
 114:	80 71       	andi	r24, 0x10	; 16
		if(kbclk != kbclk_last)
 116:	89 17       	cp	r24, r25
 118:	d9 f0       	breq	.+54     	; 0x150 <main+0x62>
		{
			kbclk_last = kbclk;
			if(!kbclk)
 11a:	81 11       	cpse	r24, r1
 11c:	14 c0       	rjmp	.+40     	; 0x146 <main+0x58>
			{
				/* Positive-to-negative edge on KB_CLK */
				switch(++kbstate)
 11e:	3f 5f       	subi	r19, 0xFF	; 255
 120:	32 30       	cpi	r19, 0x02	; 2
 122:	98 f0       	brcs	.+38     	; 0x14a <main+0x5c>
 124:	3a 30       	cpi	r19, 0x0A	; 10
 126:	18 f0       	brcs	.+6      	; 0x12e <main+0x40>
 128:	3b 30       	cpi	r19, 0x0B	; 11
 12a:	39 f0       	breq	.+14     	; 0x13a <main+0x4c>
 12c:	0e c0       	rjmp	.+28     	; 0x14a <main+0x5c>
					case state_d3:
					case state_d4:
					case state_d5:
					case state_d6:
					case state_d7:
						kbdata >>= 1;
 12e:	56 95       	lsr	r21
						if(PORTD & KB_DATA)
 130:	96 9b       	sbis	0x12, 6	; 18
 132:	0d c0       	rjmp	.+26     	; 0x14e <main+0x60>
							kbdata |= 0x80;
 134:	50 68       	ori	r21, 0x80	; 128
    {
		/* Read keyboard port */
		kbclk = PORTD & KB_CLK;
		if(kbclk != kbclk_last)
		{
			kbclk_last = kbclk;
 136:	98 2f       	mov	r25, r24
 138:	0b c0       	rjmp	.+22     	; 0x150 <main+0x62>
						/* TODO handle parity */
						break;
						
					case state_stop:
						/* TODO: process received character */
						cli();
 13a:	f8 94       	cli
						g_registers[REG_KB_DATA] = kbdata;
 13c:	5c 93       	st	X, r21
						sei();
 13e:	78 94       	sei
    {
		/* Read keyboard port */
		kbclk = PORTD & KB_CLK;
		if(kbclk != kbclk_last)
		{
			kbclk_last = kbclk;
 140:	98 2f       	mov	r25, r24
					case state_stop:
						/* TODO: process received character */
						cli();
						g_registers[REG_KB_DATA] = kbdata;
						sei();
						kbstate = state_idle;
 142:	37 2f       	mov	r19, r23
						break;
 144:	05 c0       	rjmp	.+10     	; 0x150 <main+0x62>
    {
		/* Read keyboard port */
		kbclk = PORTD & KB_CLK;
		if(kbclk != kbclk_last)
		{
			kbclk_last = kbclk;
 146:	98 2f       	mov	r25, r24
 148:	03 c0       	rjmp	.+6      	; 0x150 <main+0x62>
 14a:	98 2f       	mov	r25, r24
 14c:	01 c0       	rjmp	.+2      	; 0x150 <main+0x62>
 14e:	98 2f       	mov	r25, r24
						break;
				}
			}
		}
		
		mouseclk = PORTD & MOUSE_CLK;
 150:	82 b3       	in	r24, 0x12	; 18
 152:	80 72       	andi	r24, 0x20	; 32
		if(mouseclk != mouseclk_last)
 154:	82 17       	cp	r24, r18
 156:	e9 f2       	breq	.-70     	; 0x112 <main+0x24>
		{
			mouseclk_last = mouseclk;
			if(!mouseclk)
 158:	81 11       	cpse	r24, r1
 15a:	d6 cf       	rjmp	.-84     	; 0x108 <main+0x1a>
			{
				/* Positive-to-negative edge on MOUSE_CLK */
				switch(++mousestate)
 15c:	4f 5f       	subi	r20, 0xFF	; 255
 15e:	42 30       	cpi	r20, 0x02	; 2
 160:	a8 f2       	brcs	.-86     	; 0x10c <main+0x1e>
 162:	4a 30       	cpi	r20, 0x0A	; 10
 164:	18 f0       	brcs	.+6      	; 0x16c <main+0x7e>
 166:	4b 30       	cpi	r20, 0x0B	; 11
 168:	39 f0       	breq	.+14     	; 0x178 <main+0x8a>
 16a:	d0 cf       	rjmp	.-96     	; 0x10c <main+0x1e>
					case state_d3:
					case state_d4:
					case state_d5:
					case state_d6:
					case state_d7:
						mousedata >>= 1;
 16c:	66 95       	lsr	r22
						if(PORTD & MOUSE_DATA)
 16e:	97 9b       	sbis	0x12, 7	; 18
 170:	cf cf       	rjmp	.-98     	; 0x110 <main+0x22>
							mousedata |= 0x80;
 172:	60 68       	ori	r22, 0x80	; 128
		}
		
		mouseclk = PORTD & MOUSE_CLK;
		if(mouseclk != mouseclk_last)
		{
			mouseclk_last = mouseclk;
 174:	28 2f       	mov	r18, r24
 176:	cd cf       	rjmp	.-102    	; 0x112 <main+0x24>
						/* TODO handle parity */
						break;
					
					case state_stop:
						/* TODO: process received character */
						cli();
 178:	f8 94       	cli
						g_registers[REG_MOUSE_DATA] = mousedata;
 17a:	60 83       	st	Z, r22
						sei();
 17c:	78 94       	sei
		}
		
		mouseclk = PORTD & MOUSE_CLK;
		if(mouseclk != mouseclk_last)
		{
			mouseclk_last = mouseclk;
 17e:	28 2f       	mov	r18, r24
					case state_stop:
						/* TODO: process received character */
						cli();
						g_registers[REG_MOUSE_DATA] = mousedata;
						sei();
						mousestate = state_idle;
 180:	47 2f       	mov	r20, r23
						break;
 182:	c7 cf       	rjmp	.-114    	; 0x112 <main+0x24>

00000184 <_exit>:
 184:	f8 94       	cli

00000186 <__stop_program>:
 186:	ff cf       	rjmp	.-2      	; 0x186 <__stop_program>
